ccopy_reg
_reconstructor
p0
(cpandas.core.frame
DataFrame
p1
c__builtin__
object
p2
Ntp3
Rp4
(dp5
S'_metadata'
p6
(lp7
sS'_typ'
p8
S'dataframe'
p9
sS'_data'
p10
g0
(cpandas.core.internals.managers
BlockManager
p11
g2
Ntp12
Rp13
((lp14
cpandas.core.indexes.base
_new_Index
p15
(cpandas.core.indexes.base
Index
p16
(dp17
S'data'
p18
cnumpy.core.multiarray
_reconstruct
p19
(cnumpy
ndarray
p20
(I0
tp21
S'b'
p22
tp23
Rp24
(I1
(I54
tp25
cnumpy
dtype
p26
(S'O8'
p27
I0
I1
tp28
Rp29
(I3
S'|'
p30
NNNI-1
I-1
I63
tp31
bI00
(lp32
S'year'
p33
aS'type'
p34
aS'procOriginal'
p35
aS'proc'
p36
aS'proc_s0'
p37
aS'cat'
p38
aS'inputWSFile'
p39
aS'nominalDataName'
p40
aS'modelWSFile'
p41
aS'model'
p42
aS'rate'
p43
aS'nominal_yield'
p44
aS'sumw2'
p45
aS'nominal_yield_COWCorr'
p46
aS'photon_id_sf_Diphoton_Photon__up_yield'
p47
aS'photon_id_sf_Diphoton_Photon__down_yield'
p48
aS'photon_presel_sf_Diphoton_Photon__up_yield'
p49
aS'photon_presel_sf_Diphoton_Photon__down_yield'
p50
aS'electron_veto_sf_Diphoton_Photon__up_yield'
p51
aS'electron_veto_sf_Diphoton_Photon__down_yield'
p52
aS'muon_highptid_sf__up_yield'
p53
aS'muon_highptid_sf__down_yield'
p54
aS'isomuon_id_sf_SelectedMuon_iso__up_yield'
p55
aS'isomuon_id_sf_SelectedMuon_iso__down_yield'
p56
aS'nonisoelectron_id_sf_SelectedElectron_noiso__up_yield'
p57
aS'nonisoelectron_id_sf_SelectedElectron_noiso__down_yield'
p58
aS'isoelectron_id_sf_SelectedElectron_noiso__up_yield'
p59
aS'isoelectron_id_sf_SelectedElectron_noiso__down_yield'
p60
aS'isoelectron_id_sf_SelectedElectron_iso__up_yield'
p61
aS'isoelectron_id_sf_SelectedElectron_iso__down_yield'
p62
aS'trigger_sf__up_yield'
p63
aS'trigger_sf__down_yield'
p64
aS'PNetWvsQCDW1_sf__up_yield'
p65
aS'PNetWvsQCDW1_sf__down_yield'
p66
aS'PTransformerHtagger_sf__up_yield'
p67
aS'PTransformerHtagger_sf__down_yield'
p68
aS'L1_prefiring_sf__up_yield'
p69
aS'L1_prefiring_sf__down_yield'
p70
aS'puWeight__up_yield'
p71
aS'puWeight__down_yield'
p72
aS'FJES_up_yield'
p73
aS'FJES_down_yield'
p74
aS'FJER_up_yield'
p75
aS'FJER_down_yield'
p76
aS'JES_up_yield'
p77
aS'JES_down_yield'
p78
aS'JER_up_yield'
p79
aS'JER_down_yield'
p80
aS'MET_JES_up_yield'
p81
aS'MET_JES_down_yield'
p82
aS'MET_Unclustered_up_yield'
p83
aS'MET_Unclustered_down_yield'
p84
aS'Muon_pt_up_yield'
p85
aS'Muon_pt_down_yield'
p86
atp87
bsS'name'
p88
Nstp89
Rp90
ag15
(cpandas.core.indexes.numeric
Int64Index
p91
(dp92
g18
g19
(g20
(I0
tp93
g22
tp94
Rp95
(I1
(I3
tp96
g26
(S'i8'
p97
I0
I1
tp98
Rp99
(I3
S'<'
p100
NNNI-1
I-1
I0
tp101
bI00
S'\x00\x00\x00\x00\x00\x00\x00\x00\x01\x00\x00\x00\x00\x00\x00\x00\x02\x00\x00\x00\x00\x00\x00\x00'
p102
tp103
bsg88
Nstp104
Rp105
a(lp106
g19
(g20
(I0
tp107
g22
tp108
Rp109
(I1
(I1
I3
tp110
g26
(S'f8'
p111
I0
I1
tp112
Rp113
(I3
S'<'
p114
NNNI-1
I-1
I0
tp115
bI00
S'\x00\x00\x00\x00\x00@\x8f@\x00\x00\x00\x00\x00\x00\xf0?\x00\x00\x00\x00\x00\x00\xf0\xbf'
p116
tp117
bag19
(g20
(I0
tp118
g22
tp119
Rp120
(I1
(I53
I3
tp121
g29
I00
(lp122
S'2017'
p123
ag33
ag33
aS'sig'
p124
aS'bkg'
p125
ag18
aS'gghh'
p126
aS'bkg_mass'
p127
aS'data_obs'
p128
aS'gghh_2017_hgg'
p129
ag127
ag128
ag126
aS'-'
p130
ag130
aS'combineFHSL_cat12highpurity_2017'
p131
aS'combineFHSL_cat12highpurity_2017'
p132
ag132
aS'/eos/cms/store/group/phys_b2g/shsong/flashggws/cat12/2017/MX500_MH125/ws_gghh_MX500_MH125_2017_combineFHSL_cat12highpurity/output_SignalMX500_MH125combineFHSL_cat12highpurity_M125_2017_13TeV_amcatnloFXFX_pythia8_gghh.root'
p133
ag130
ag130
aS'gghh_125_13TeV_combineFHSL_cat12highpurity'
p134
ag130
ag130
aS'/eos/cms/store/group/phys_b2g/shsong/flashggws/cat12/2017/MX500_MH125/ws_gghh_MX500_MH125_2017_combineFHSL_cat12highpurity/CMS-HGG_sigfit_packaged_combineFHSL_cat12highpurity_2017.root'
p135
aS'/eos/cms/store/group/phys_b2g/shsong/flashggws/cat12/2017/MX500_MH125/ws_2017_combineFHSL_cat12highpurity/CMS-HGG_multipdf_combineFHSL_cat12highpurity_2017.root'
p136
ag136
aS'wsig_13TeV:hggpdfsmrel_gghh_2017_combineFHSL_cat12highpurity_13TeV'
p137
aS'multipdf:CMS_hgg_combineFHSL_cat12highpurity_2017_13TeV_bkgshape'
p138
aS'multipdf:roohist_data_mass_combineFHSL_cat12highpurity'
p139
aF8.835023460019923e-05
ag130
ag130
aF8.893483291083158e-13
ag130
ag130
aF8.835023460019923e-05
ag130
ag130
aF9.16306816076682e-05
ag130
ag130
aF8.512499029047692e-05
ag130
ag130
aF9.103280459088753e-05
ag130
ag130
aF8.57081214126532e-05
ag130
ag130
aF8.857166768503171e-05
ag130
ag130
aF8.812911016687154e-05
ag130
ag130
aF8.835312933681387e-05
ag130
ag130
aF8.834733986979055e-05
ag130
ag130
aF8.861373425769238e-05
ag130
ag130
aF8.80867376470523e-05
ag130
ag130
aF8.840394687141985e-05
ag130
ag130
aF8.829667526078077e-05
ag130
ag130
aF8.842146308243606e-05
ag130
ag130
aF8.82792263945066e-05
ag130
ag130
aF8.839095152166975e-05
ag130
ag130
aF8.830954317341438e-05
ag130
ag130
aF8.958011676841237e-05
ag130
ag130
aF8.712274363852772e-05
ag130
ag130
aF8.834950186083446e-05
ag130
ag130
aF8.835112229352377e-05
ag130
ag130
aF8.86707410678831e-05
ag130
ag130
aF8.79860227051039e-05
ag130
ag130
aF8.759626926109303e-05
ag130
ag130
aF8.91070533081686e-05
ag130
ag130
aF8.849810940657881e-05
ag130
ag130
aF8.821935496224677e-05
ag130
ag130
aF8.847533481458964e-05
ag130
ag130
aF8.838823315971163e-05
ag130
ag130
aF8.843556681841247e-05
ag130
ag130
aF8.838686570219976e-05
ag130
ag130
aF8.817284989033646e-05
ag130
ag130
aF8.847464543765408e-05
ag130
ag130
aF8.829798923920396e-05
ag130
ag130
aF8.832848198480181e-05
ag130
ag130
aF8.835023460019903e-05
ag130
ag130
aF8.835023460019903e-05
ag130
ag130
aF8.835023460019903e-05
ag130
ag130
aF8.835023460019903e-05
ag130
ag130
aF8.837108251580288e-05
ag130
ag130
aF8.83273505798612e-05
ag130
ag130
atp140
ba(lp141
g15
(g16
(dp142
g18
g19
(g20
(I0
tp143
g22
tp144
Rp145
(I1
(I1
tp146
g29
I00
(lp147
g43
atp148
bsg88
Nstp149
Rp150
ag15
(g16
(dp151
g18
g19
(g20
(I0
tp152
g22
tp153
Rp154
(I1
(I53
tp155
g29
I00
(lp156
g33
ag34
ag35
ag36
ag37
ag38
ag39
ag40
ag41
ag42
ag44
ag45
ag46
ag47
ag48
ag49
ag50
ag51
ag52
ag53
ag54
ag55
ag56
ag57
ag58
ag59
ag60
ag61
ag62
ag63
ag64
ag65
ag66
ag67
ag68
ag69
ag70
ag71
ag72
ag73
ag74
ag75
ag76
ag77
ag78
ag79
ag80
ag81
ag82
ag83
ag84
ag85
ag86
atp157
bsg88
Nstp158
Rp159
a(dp160
S'0.14.1'
p161
(dp162
S'axes'
p163
g14
sS'blocks'
p164
(lp165
(dp166
S'mgr_locs'
p167
c__builtin__
slice
p168
(I10
I11
I1
tp169
Rp170
sS'values'
p171
g109
sa(dp172
g167
g19
(g20
(I0
tp173
g22
tp174
Rp175
(I1
(I53
tp176
g99
I00
S'\x00\x00\x00\x00\x00\x00\x00\x00\x01\x00\x00\x00\x00\x00\x00\x00\x02\x00\x00\x00\x00\x00\x00\x00\x03\x00\x00\x00\x00\x00\x00\x00\x04\x00\x00\x00\x00\x00\x00\x00\x05\x00\x00\x00\x00\x00\x00\x00\x06\x00\x00\x00\x00\x00\x00\x00\x07\x00\x00\x00\x00\x00\x00\x00\x08\x00\x00\x00\x00\x00\x00\x00\t\x00\x00\x00\x00\x00\x00\x00\x0b\x00\x00\x00\x00\x00\x00\x00\x0c\x00\x00\x00\x00\x00\x00\x00\r\x00\x00\x00\x00\x00\x00\x00\x0e\x00\x00\x00\x00\x00\x00\x00\x0f\x00\x00\x00\x00\x00\x00\x00\x10\x00\x00\x00\x00\x00\x00\x00\x11\x00\x00\x00\x00\x00\x00\x00\x12\x00\x00\x00\x00\x00\x00\x00\x13\x00\x00\x00\x00\x00\x00\x00\x14\x00\x00\x00\x00\x00\x00\x00\x15\x00\x00\x00\x00\x00\x00\x00\x16\x00\x00\x00\x00\x00\x00\x00\x17\x00\x00\x00\x00\x00\x00\x00\x18\x00\x00\x00\x00\x00\x00\x00\x19\x00\x00\x00\x00\x00\x00\x00\x1a\x00\x00\x00\x00\x00\x00\x00\x1b\x00\x00\x00\x00\x00\x00\x00\x1c\x00\x00\x00\x00\x00\x00\x00\x1d\x00\x00\x00\x00\x00\x00\x00\x1e\x00\x00\x00\x00\x00\x00\x00\x1f\x00\x00\x00\x00\x00\x00\x00 \x00\x00\x00\x00\x00\x00\x00!\x00\x00\x00\x00\x00\x00\x00"\x00\x00\x00\x00\x00\x00\x00#\x00\x00\x00\x00\x00\x00\x00$\x00\x00\x00\x00\x00\x00\x00%\x00\x00\x00\x00\x00\x00\x00&\x00\x00\x00\x00\x00\x00\x00\'\x00\x00\x00\x00\x00\x00\x00(\x00\x00\x00\x00\x00\x00\x00)\x00\x00\x00\x00\x00\x00\x00*\x00\x00\x00\x00\x00\x00\x00+\x00\x00\x00\x00\x00\x00\x00,\x00\x00\x00\x00\x00\x00\x00-\x00\x00\x00\x00\x00\x00\x00.\x00\x00\x00\x00\x00\x00\x00/\x00\x00\x00\x00\x00\x00\x000\x00\x00\x00\x00\x00\x00\x001\x00\x00\x00\x00\x00\x00\x002\x00\x00\x00\x00\x00\x00\x003\x00\x00\x00\x00\x00\x00\x004\x00\x00\x00\x00\x00\x00\x005\x00\x00\x00\x00\x00\x00\x00'
p177
tp178
bsg171
g120
sasstp179
bsb.