ccopy_reg
_reconstructor
p0
(cpandas.core.frame
DataFrame
p1
c__builtin__
object
p2
Ntp3
Rp4
(dp5
S'_metadata'
p6
(lp7
sS'_typ'
p8
S'dataframe'
p9
sS'_data'
p10
g0
(cpandas.core.internals.managers
BlockManager
p11
g2
Ntp12
Rp13
((lp14
cpandas.core.indexes.base
_new_Index
p15
(cpandas.core.indexes.base
Index
p16
(dp17
S'data'
p18
cnumpy.core.multiarray
_reconstruct
p19
(cnumpy
ndarray
p20
(I0
tp21
S'b'
p22
tp23
Rp24
(I1
(I52
tp25
cnumpy
dtype
p26
(S'O8'
p27
I0
I1
tp28
Rp29
(I3
S'|'
p30
NNNI-1
I-1
I63
tp31
bI00
(lp32
S'year'
p33
aS'type'
p34
aS'procOriginal'
p35
aS'proc'
p36
aS'proc_s0'
p37
aS'cat'
p38
aS'inputWSFile'
p39
aS'nominalDataName'
p40
aS'modelWSFile'
p41
aS'model'
p42
aS'rate'
p43
aS'nominal_yield'
p44
aS'sumw2'
p45
aS'nominal_yield_COWCorr'
p46
aS'photon_id_sf_Diphoton_Photon__up_yield'
p47
aS'photon_id_sf_Diphoton_Photon__down_yield'
p48
aS'photon_presel_sf_Diphoton_Photon__up_yield'
p49
aS'photon_presel_sf_Diphoton_Photon__down_yield'
p50
aS'electron_veto_sf_Diphoton_Photon__up_yield'
p51
aS'electron_veto_sf_Diphoton_Photon__down_yield'
p52
aS'muon_highptid_sf__up_yield'
p53
aS'muon_highptid_sf__down_yield'
p54
aS'isomuon_id_sf_SelectedMuon_iso__up_yield'
p55
aS'isomuon_id_sf_SelectedMuon_iso__down_yield'
p56
aS'nonisoelectron_id_sf_SelectedElectron_noiso__up_yield'
p57
aS'nonisoelectron_id_sf_SelectedElectron_noiso__down_yield'
p58
aS'isoelectron_id_sf_SelectedElectron_noiso__up_yield'
p59
aS'isoelectron_id_sf_SelectedElectron_noiso__down_yield'
p60
aS'isoelectron_id_sf_SelectedElectron_iso__up_yield'
p61
aS'isoelectron_id_sf_SelectedElectron_iso__down_yield'
p62
aS'trigger_sf__up_yield'
p63
aS'trigger_sf__down_yield'
p64
aS'PTransformerHtagger_sf__up_yield'
p65
aS'PTransformerHtagger_sf__down_yield'
p66
aS'L1_prefiring_sf__up_yield'
p67
aS'L1_prefiring_sf__down_yield'
p68
aS'puWeight__up_yield'
p69
aS'puWeight__down_yield'
p70
aS'FJES_up_yield'
p71
aS'FJES_down_yield'
p72
aS'FJER_up_yield'
p73
aS'FJER_down_yield'
p74
aS'JES_up_yield'
p75
aS'JES_down_yield'
p76
aS'JER_up_yield'
p77
aS'JER_down_yield'
p78
aS'MET_JES_up_yield'
p79
aS'MET_JES_down_yield'
p80
aS'MET_Unclustered_up_yield'
p81
aS'MET_Unclustered_down_yield'
p82
aS'Muon_pt_up_yield'
p83
aS'Muon_pt_down_yield'
p84
atp85
bsS'name'
p86
Nstp87
Rp88
ag15
(cpandas.core.indexes.numeric
Int64Index
p89
(dp90
g18
g19
(g20
(I0
tp91
g22
tp92
Rp93
(I1
(I3
tp94
g26
(S'i8'
p95
I0
I1
tp96
Rp97
(I3
S'<'
p98
NNNI-1
I-1
I0
tp99
bI00
S'\x00\x00\x00\x00\x00\x00\x00\x00\x01\x00\x00\x00\x00\x00\x00\x00\x02\x00\x00\x00\x00\x00\x00\x00'
p100
tp101
bsg86
Nstp102
Rp103
a(lp104
g19
(g20
(I0
tp105
g22
tp106
Rp107
(I1
(I1
I3
tp108
g26
(S'f8'
p109
I0
I1
tp110
Rp111
(I3
S'<'
p112
NNNI-1
I-1
I0
tp113
bI00
S'\x00\x00\x00\x00\x00@\x8f@\x00\x00\x00\x00\x00\x00\xf0?\x00\x00\x00\x00\x00\x00\xf0\xbf'
p114
tp115
bag19
(g20
(I0
tp116
g22
tp117
Rp118
(I1
(I51
I3
tp119
g29
I00
(lp120
S'2017'
p121
ag33
ag33
aS'sig'
p122
aS'bkg'
p123
ag18
aS'gghh'
p124
aS'bkg_mass'
p125
aS'data_obs'
p126
aS'gghh_2017_hgg'
p127
ag125
ag126
ag124
aS'-'
p128
ag128
aS'bbgg_cat12highpurity_2017'
p129
aS'bbgg_cat12highpurity_2017'
p130
ag130
aS'/eos/cms/store/group/phys_b2g/shsong/flashggws/cat12/2017/MX1500_MH125/ws_gghh_MX1500_MH125_2017_bbgg_cat12highpurity/output_SignalMX1500_MH125bbgg_cat12highpurity_M125_2017_13TeV_amcatnloFXFX_pythia8_gghh.root'
p131
ag128
ag128
aS'gghh_125_13TeV_bbgg_cat12highpurity'
p132
ag128
ag128
aS'/eos/cms/store/group/phys_b2g/shsong/flashggws/cat12/2017/MX1500_MH125/ws_gghh_MX1500_MH125_2017_bbgg_cat12highpurity/CMS-HGG_sigfit_packaged_bbgg_cat12highpurity_2017.root'
p133
aS'/eos/cms/store/group/phys_b2g/shsong/flashggws/cat12/2017/MX1500_MH125/ws_2017_bbgg_cat12highpurity/CMS-HGG_multipdf_bbgg_cat12highpurity_2017.root'
p134
ag134
aS'wsig_13TeV:hggpdfsmrel_gghh_2017_bbgg_cat12highpurity_13TeV'
p135
aS'multipdf:CMS_hgg_bbgg_cat12highpurity_2017_13TeV_bkgshape'
p136
aS'multipdf:roohist_data_mass_bbgg_cat12highpurity'
p137
aF1.760436519495841e-05
ag128
ag128
aF2.1941795770677496e-12
ag128
ag128
aF1.760436519495841e-05
ag128
ag128
aF1.8574443841545906e-05
ag128
ag128
aF1.6659179836783053e-05
ag128
ag128
aF1.814018126326751e-05
ag128
ag128
aF1.707668494277253e-05
ag128
ag128
aF1.764560292418175e-05
ag128
ag128
aF1.7563186141504098e-05
ag128
ag128
aF1.7604868913117893e-05
ag128
ag128
aF1.760386147679894e-05
ag128
ag128
aF1.760641315492871e-05
ag128
ag128
aF1.760231723498811e-05
ag128
ag128
aF1.7623612485108188e-05
ag128
ag128
aF1.7585117904808626e-05
ag128
ag128
aF1.7628386725737633e-05
ag128
ag128
aF1.7580343664179184e-05
ag128
ag128
aF1.762200377779574e-05
ag128
ag128
aF1.7586726612121085e-05
ag128
ag128
aF1.784039952744655e-05
ag128
ag128
aF1.7368789544727087e-05
ag128
ag128
aF1.9774744542282808e-05
ag128
ag128
aF1.5138025027544329e-05
ag128
ag128
aF1.7395816955794313e-05
ag128
ag128
aF1.78135539903831e-05
ag128
ag128
aF1.7182525663491338e-05
ag128
ag128
aF1.7461461395572903e-05
ag128
ag128
aF1.800748872410698e-05
ag128
ag128
aF1.7207020376384255e-05
ag128
ag128
aF1.801163969835078e-05
ag128
ag128
aF1.7497192898259668e-05
ag128
ag128
aF1.7742654954258007e-05
ag128
ag128
aF1.7723152273897318e-05
ag128
ag128
aF1.7742654954258007e-05
ag128
ag128
aF1.760436519495841e-05
ag128
ag128
aF1.760436519495841e-05
ag128
ag128
aF1.760436519495841e-05
ag128
ag128
aF1.760436519495841e-05
ag128
ag128
aF1.760436519495841e-05
ag128
ag128
aF1.760436519495841e-05
ag128
ag128
aF1.760436519495841e-05
ag128
ag128
atp138
ba(lp139
g15
(g16
(dp140
g18
g19
(g20
(I0
tp141
g22
tp142
Rp143
(I1
(I1
tp144
g29
I00
(lp145
g43
atp146
bsg86
Nstp147
Rp148
ag15
(g16
(dp149
g18
g19
(g20
(I0
tp150
g22
tp151
Rp152
(I1
(I51
tp153
g29
I00
(lp154
g33
ag34
ag35
ag36
ag37
ag38
ag39
ag40
ag41
ag42
ag44
ag45
ag46
ag47
ag48
ag49
ag50
ag51
ag52
ag53
ag54
ag55
ag56
ag57
ag58
ag59
ag60
ag61
ag62
ag63
ag64
ag65
ag66
ag67
ag68
ag69
ag70
ag71
ag72
ag73
ag74
ag75
ag76
ag77
ag78
ag79
ag80
ag81
ag82
ag83
ag84
atp155
bsg86
Nstp156
Rp157
a(dp158
S'0.14.1'
p159
(dp160
S'axes'
p161
g14
sS'blocks'
p162
(lp163
(dp164
S'mgr_locs'
p165
c__builtin__
slice
p166
(I10
I11
I1
tp167
Rp168
sS'values'
p169
g107
sa(dp170
g165
g19
(g20
(I0
tp171
g22
tp172
Rp173
(I1
(I51
tp174
g97
I00
S'\x00\x00\x00\x00\x00\x00\x00\x00\x01\x00\x00\x00\x00\x00\x00\x00\x02\x00\x00\x00\x00\x00\x00\x00\x03\x00\x00\x00\x00\x00\x00\x00\x04\x00\x00\x00\x00\x00\x00\x00\x05\x00\x00\x00\x00\x00\x00\x00\x06\x00\x00\x00\x00\x00\x00\x00\x07\x00\x00\x00\x00\x00\x00\x00\x08\x00\x00\x00\x00\x00\x00\x00\t\x00\x00\x00\x00\x00\x00\x00\x0b\x00\x00\x00\x00\x00\x00\x00\x0c\x00\x00\x00\x00\x00\x00\x00\r\x00\x00\x00\x00\x00\x00\x00\x0e\x00\x00\x00\x00\x00\x00\x00\x0f\x00\x00\x00\x00\x00\x00\x00\x10\x00\x00\x00\x00\x00\x00\x00\x11\x00\x00\x00\x00\x00\x00\x00\x12\x00\x00\x00\x00\x00\x00\x00\x13\x00\x00\x00\x00\x00\x00\x00\x14\x00\x00\x00\x00\x00\x00\x00\x15\x00\x00\x00\x00\x00\x00\x00\x16\x00\x00\x00\x00\x00\x00\x00\x17\x00\x00\x00\x00\x00\x00\x00\x18\x00\x00\x00\x00\x00\x00\x00\x19\x00\x00\x00\x00\x00\x00\x00\x1a\x00\x00\x00\x00\x00\x00\x00\x1b\x00\x00\x00\x00\x00\x00\x00\x1c\x00\x00\x00\x00\x00\x00\x00\x1d\x00\x00\x00\x00\x00\x00\x00\x1e\x00\x00\x00\x00\x00\x00\x00\x1f\x00\x00\x00\x00\x00\x00\x00 \x00\x00\x00\x00\x00\x00\x00!\x00\x00\x00\x00\x00\x00\x00"\x00\x00\x00\x00\x00\x00\x00#\x00\x00\x00\x00\x00\x00\x00$\x00\x00\x00\x00\x00\x00\x00%\x00\x00\x00\x00\x00\x00\x00&\x00\x00\x00\x00\x00\x00\x00\'\x00\x00\x00\x00\x00\x00\x00(\x00\x00\x00\x00\x00\x00\x00)\x00\x00\x00\x00\x00\x00\x00*\x00\x00\x00\x00\x00\x00\x00+\x00\x00\x00\x00\x00\x00\x00,\x00\x00\x00\x00\x00\x00\x00-\x00\x00\x00\x00\x00\x00\x00.\x00\x00\x00\x00\x00\x00\x00/\x00\x00\x00\x00\x00\x00\x000\x00\x00\x00\x00\x00\x00\x001\x00\x00\x00\x00\x00\x00\x002\x00\x00\x00\x00\x00\x00\x003\x00\x00\x00\x00\x00\x00\x00'
p175
tp176
bsg169
g118
sasstp177
bsb.