ccopy_reg
_reconstructor
p0
(cpandas.core.frame
DataFrame
p1
c__builtin__
object
p2
Ntp3
Rp4
(dp5
S'_metadata'
p6
(lp7
sS'_typ'
p8
S'dataframe'
p9
sS'_data'
p10
g0
(cpandas.core.internals.managers
BlockManager
p11
g2
Ntp12
Rp13
((lp14
cpandas.core.indexes.base
_new_Index
p15
(cpandas.core.indexes.base
Index
p16
(dp17
S'data'
p18
cnumpy.core.multiarray
_reconstruct
p19
(cnumpy
ndarray
p20
(I0
tp21
S'b'
p22
tp23
Rp24
(I1
(I48
tp25
cnumpy
dtype
p26
(S'O8'
p27
I0
I1
tp28
Rp29
(I3
S'|'
p30
NNNI-1
I-1
I63
tp31
bI00
(lp32
S'year'
p33
aS'type'
p34
aS'procOriginal'
p35
aS'proc'
p36
aS'proc_s0'
p37
aS'cat'
p38
aS'inputWSFile'
p39
aS'nominalDataName'
p40
aS'modelWSFile'
p41
aS'model'
p42
aS'rate'
p43
aS'nominal_yield'
p44
aS'sumw2'
p45
aS'nominal_yield_COWCorr'
p46
aS'photon_id_sf_Diphoton_Photon__up_yield'
p47
aS'photon_id_sf_Diphoton_Photon__down_yield'
p48
aS'photon_presel_sf_Diphoton_Photon__up_yield'
p49
aS'photon_presel_sf_Diphoton_Photon__down_yield'
p50
aS'electron_veto_sf_Diphoton_Photon__up_yield'
p51
aS'electron_veto_sf_Diphoton_Photon__down_yield'
p52
aS'isomuon_id_sf_SelectedMuon_iso__up_yield'
p53
aS'isomuon_id_sf_SelectedMuon_iso__down_yield'
p54
aS'nonisoelectron_id_sf_SelectedElectron_noiso__up_yield'
p55
aS'nonisoelectron_id_sf_SelectedElectron_noiso__down_yield'
p56
aS'isoelectron_id_sf_SelectedElectron_noiso__up_yield'
p57
aS'isoelectron_id_sf_SelectedElectron_noiso__down_yield'
p58
aS'isoelectron_id_sf_SelectedElectron_iso__up_yield'
p59
aS'isoelectron_id_sf_SelectedElectron_iso__down_yield'
p60
aS'trigger_sf__up_yield'
p61
aS'trigger_sf__down_yield'
p62
aS'L1_prefiring_sf__up_yield'
p63
aS'L1_prefiring_sf__down_yield'
p64
aS'puWeight__up_yield'
p65
aS'puWeight__down_yield'
p66
aS'FJES_up_yield'
p67
aS'FJES_down_yield'
p68
aS'FJER_up_yield'
p69
aS'FJER_down_yield'
p70
aS'JES_up_yield'
p71
aS'JES_down_yield'
p72
aS'JER_up_yield'
p73
aS'JER_down_yield'
p74
aS'MET_JES_up_yield'
p75
aS'MET_JES_down_yield'
p76
aS'MET_Unclustered_up_yield'
p77
aS'MET_Unclustered_down_yield'
p78
aS'Muon_pt_up_yield'
p79
aS'Muon_pt_down_yield'
p80
atp81
bsS'name'
p82
Nstp83
Rp84
ag15
(cpandas.core.indexes.numeric
Int64Index
p85
(dp86
g18
g19
(g20
(I0
tp87
g22
tp88
Rp89
(I1
(I3
tp90
g26
(S'i8'
p91
I0
I1
tp92
Rp93
(I3
S'<'
p94
NNNI-1
I-1
I0
tp95
bI00
S'\x00\x00\x00\x00\x00\x00\x00\x00\x01\x00\x00\x00\x00\x00\x00\x00\x02\x00\x00\x00\x00\x00\x00\x00'
p96
tp97
bsg82
Nstp98
Rp99
a(lp100
g19
(g20
(I0
tp101
g22
tp102
Rp103
(I1
(I1
I3
tp104
g26
(S'f8'
p105
I0
I1
tp106
Rp107
(I3
S'<'
p108
NNNI-1
I-1
I0
tp109
bI00
S'\x00\x00\x00\x00\x00@\x8f@\x00\x00\x00\x00\x00\x00\xf0?\x00\x00\x00\x00\x00\x00\xf0\xbf'
p110
tp111
bag19
(g20
(I0
tp112
g22
tp113
Rp114
(I1
(I47
I3
tp115
g29
I00
(lp116
S'2017'
p117
ag33
ag33
aS'sig'
p118
aS'bkg'
p119
ag18
aS'gghh'
p120
aS'bkg_mass'
p121
aS'data_obs'
p122
aS'gghh_2017_hgg'
p123
ag121
ag122
ag120
aS'-'
p124
ag124
aS'combineFHSL_cat34lowpurity_2017'
p125
aS'combineFHSL_cat34lowpurity_2017'
p126
ag126
aS'/eos/cms/store/group/phys_b2g/shsong/flashggws/cat34/2017/MX700_MH125/ws_gghh_MX700_MH125_2017_combineFHSL_cat34lowpurity/output_SignalMX700_MH125combineFHSL_cat34lowpurity_M125_2017_13TeV_amcatnloFXFX_pythia8_gghh.root'
p127
ag124
ag124
aS'gghh_125_13TeV_combineFHSL_cat34lowpurity'
p128
ag124
ag124
aS'/eos/cms/store/group/phys_b2g/shsong/flashggws/cat34/2017/MX700_MH125/ws_gghh_MX700_MH125_2017_combineFHSL_cat34lowpurity/CMS-HGG_sigfit_packaged_combineFHSL_cat34lowpurity_2017.root'
p129
aS'/eos/cms/store/group/phys_b2g/shsong/flashggws/cat34/2017/MX700_MH125/ws_2017_combineFHSL_cat34lowpurity/CMS-HGG_multipdf_combineFHSL_cat34lowpurity_2017.root'
p130
ag130
aS'wsig_13TeV:hggpdfsmrel_gghh_2017_combineFHSL_cat34lowpurity_13TeV'
p131
aS'multipdf:CMS_hgg_combineFHSL_cat34lowpurity_2017_13TeV_bkgshape'
p132
aS'multipdf:roohist_data_mass_combineFHSL_cat34lowpurity'
p133
aF0.0016121462628944014
ag124
ag124
aF1.6545306482929098e-11
ag124
ag124
aF0.0016121462628944014
ag124
ag124
aF0.001667435226971282
ag124
ag124
aF0.0015577080628089125
ag124
ag124
aF0.0016592346009601227
ag124
ag124
aF0.001565744785211081
ag124
ag124
aF0.001616746836450606
ag124
ag124
aF0.0016075529408752448
ag124
ag124
aF0.0016123866598105007
ag124
ag124
aF0.0016119058661744122
ag124
ag124
aF0.0016121536756554906
ag124
ag124
aF0.0016121388501333118
ag124
ag124
aF0.0016121553299362449
ag124
ag124
aF0.0016121371958525582
ag124
ag124
aF0.0016132284597386458
ag124
ag124
aF0.0016110641867613143
ag124
ag124
aF0.001634676350707359
ag124
ag124
aF0.0015896602305854619
ag124
ag124
aF0.0015941046151617716
ag124
ag124
aF0.0016302753870053842
ag124
ag124
aF0.0016001303240511576
ag124
ag124
aF0.001623160297831802
ag124
ag124
aF0.001612146262894471
ag124
ag124
aF0.001612146262894471
ag124
ag124
aF0.001612146262894471
ag124
ag124
aF0.001612146262894471
ag124
ag124
aF0.0016344511357160396
ag124
ag124
aF0.0015902444791597344
ag124
ag124
aF0.0016146167214131399
ag124
ag124
aF0.0016087897203145678
ag124
ag124
aF0.001612146262894471
ag124
ag124
aF0.001612146262894471
ag124
ag124
aF0.001612146262894471
ag124
ag124
aF0.001612146262894471
ag124
ag124
aF0.0016120735578325157
ag124
ag124
aF0.0016122602027181983
ag124
ag124
atp134
ba(lp135
g15
(g16
(dp136
g18
g19
(g20
(I0
tp137
g22
tp138
Rp139
(I1
(I1
tp140
g29
I00
(lp141
g43
atp142
bsg82
Nstp143
Rp144
ag15
(g16
(dp145
g18
g19
(g20
(I0
tp146
g22
tp147
Rp148
(I1
(I47
tp149
g29
I00
(lp150
g33
ag34
ag35
ag36
ag37
ag38
ag39
ag40
ag41
ag42
ag44
ag45
ag46
ag47
ag48
ag49
ag50
ag51
ag52
ag53
ag54
ag55
ag56
ag57
ag58
ag59
ag60
ag61
ag62
ag63
ag64
ag65
ag66
ag67
ag68
ag69
ag70
ag71
ag72
ag73
ag74
ag75
ag76
ag77
ag78
ag79
ag80
atp151
bsg82
Nstp152
Rp153
a(dp154
S'0.14.1'
p155
(dp156
S'axes'
p157
g14
sS'blocks'
p158
(lp159
(dp160
S'mgr_locs'
p161
c__builtin__
slice
p162
(I10
I11
I1
tp163
Rp164
sS'values'
p165
g103
sa(dp166
g161
g19
(g20
(I0
tp167
g22
tp168
Rp169
(I1
(I47
tp170
g93
I00
S'\x00\x00\x00\x00\x00\x00\x00\x00\x01\x00\x00\x00\x00\x00\x00\x00\x02\x00\x00\x00\x00\x00\x00\x00\x03\x00\x00\x00\x00\x00\x00\x00\x04\x00\x00\x00\x00\x00\x00\x00\x05\x00\x00\x00\x00\x00\x00\x00\x06\x00\x00\x00\x00\x00\x00\x00\x07\x00\x00\x00\x00\x00\x00\x00\x08\x00\x00\x00\x00\x00\x00\x00\t\x00\x00\x00\x00\x00\x00\x00\x0b\x00\x00\x00\x00\x00\x00\x00\x0c\x00\x00\x00\x00\x00\x00\x00\r\x00\x00\x00\x00\x00\x00\x00\x0e\x00\x00\x00\x00\x00\x00\x00\x0f\x00\x00\x00\x00\x00\x00\x00\x10\x00\x00\x00\x00\x00\x00\x00\x11\x00\x00\x00\x00\x00\x00\x00\x12\x00\x00\x00\x00\x00\x00\x00\x13\x00\x00\x00\x00\x00\x00\x00\x14\x00\x00\x00\x00\x00\x00\x00\x15\x00\x00\x00\x00\x00\x00\x00\x16\x00\x00\x00\x00\x00\x00\x00\x17\x00\x00\x00\x00\x00\x00\x00\x18\x00\x00\x00\x00\x00\x00\x00\x19\x00\x00\x00\x00\x00\x00\x00\x1a\x00\x00\x00\x00\x00\x00\x00\x1b\x00\x00\x00\x00\x00\x00\x00\x1c\x00\x00\x00\x00\x00\x00\x00\x1d\x00\x00\x00\x00\x00\x00\x00\x1e\x00\x00\x00\x00\x00\x00\x00\x1f\x00\x00\x00\x00\x00\x00\x00 \x00\x00\x00\x00\x00\x00\x00!\x00\x00\x00\x00\x00\x00\x00"\x00\x00\x00\x00\x00\x00\x00#\x00\x00\x00\x00\x00\x00\x00$\x00\x00\x00\x00\x00\x00\x00%\x00\x00\x00\x00\x00\x00\x00&\x00\x00\x00\x00\x00\x00\x00\'\x00\x00\x00\x00\x00\x00\x00(\x00\x00\x00\x00\x00\x00\x00)\x00\x00\x00\x00\x00\x00\x00*\x00\x00\x00\x00\x00\x00\x00+\x00\x00\x00\x00\x00\x00\x00,\x00\x00\x00\x00\x00\x00\x00-\x00\x00\x00\x00\x00\x00\x00.\x00\x00\x00\x00\x00\x00\x00/\x00\x00\x00\x00\x00\x00\x00'
p171
tp172
bsg165
g114
sasstp173
bsb.