ccopy_reg
_reconstructor
p0
(cpandas.core.frame
DataFrame
p1
c__builtin__
object
p2
Ntp3
Rp4
(dp5
S'_metadata'
p6
(lp7
sS'_typ'
p8
S'dataframe'
p9
sS'_data'
p10
g0
(cpandas.core.internals.managers
BlockManager
p11
g2
Ntp12
Rp13
((lp14
cpandas.core.indexes.base
_new_Index
p15
(cpandas.core.indexes.base
Index
p16
(dp17
S'data'
p18
cnumpy.core.multiarray
_reconstruct
p19
(cnumpy
ndarray
p20
(I0
tp21
S'b'
p22
tp23
Rp24
(I1
(I14
tp25
cnumpy
dtype
p26
(S'O8'
p27
I0
I1
tp28
Rp29
(I3
S'|'
p30
NNNI-1
I-1
I63
tp31
bI00
(lp32
S'year'
p33
aS'type'
p34
aS'procOriginal'
p35
aS'proc'
p36
aS'proc_s0'
p37
aS'cat'
p38
aS'inputWSFile'
p39
aS'nominalDataName'
p40
aS'modelWSFile'
p41
aS'model'
p42
aS'rate'
p43
aS'nominal_yield'
p44
aS'sumw2'
p45
aS'nominal_yield_COWCorr'
p46
atp47
bsS'name'
p48
Nstp49
Rp50
ag15
(cpandas.core.indexes.numeric
Int64Index
p51
(dp52
g18
g19
(g20
(I0
tp53
g22
tp54
Rp55
(I1
(I3
tp56
g26
(S'i8'
p57
I0
I1
tp58
Rp59
(I3
S'<'
p60
NNNI-1
I-1
I0
tp61
bI00
S'\x00\x00\x00\x00\x00\x00\x00\x00\x01\x00\x00\x00\x00\x00\x00\x00\x02\x00\x00\x00\x00\x00\x00\x00'
p62
tp63
bsg48
Nstp64
Rp65
a(lp66
g19
(g20
(I0
tp67
g22
tp68
Rp69
(I1
(I1
I3
tp70
g26
(S'f8'
p71
I0
I1
tp72
Rp73
(I3
S'<'
p74
NNNI-1
I-1
I0
tp75
bI00
S'\x00\x00\x00\x00\x00A\xe4@\x00\x00\x00\x00\x00\x00\xf0?\x00\x00\x00\x00\x00\x00\xf0\xbf'
p76
tp77
bag19
(g20
(I0
tp78
g22
tp79
Rp80
(I1
(I13
I3
tp81
g29
I00
(lp82
S'2017'
p83
ag33
ag33
aS'sig'
p84
aS'bkg'
p85
ag18
aS'gghh'
p86
aS'bkg_mass'
p87
aS'data_obs'
p88
aS'gghh_2017_hgg'
p89
ag87
ag88
ag86
aS'-'
p90
ag90
aS'RECO_untagged_2jets_3jets_2017'
p91
aS'RECO_untagged_2jets_3jets_2017'
p92
ag92
aS'/eos/user/z/zhenxuan/hhwwgg_root/hhwwgg_root_FH/ws_gghh_M2000_2jets_3jets/output_SignalM2000_2jets_3jets_M125_FH_2017_13TeV_amcatnloFXFX_pythia8_gghh.root'
p93
ag90
ag90
aS'gghh_125_13TeV_RECO_untagged_2jets_3jets'
p94
ag90
ag90
aS'/eos/user/z/zhenxuan/hhwwgg_root/hhwwgg_root_FH/ws_gghh_M2000_2jets_3jets/CMS-HGG_sigfit_packaged_RECO_untagged_2jets_3jets_2017.root'
p95
aS'/eos/user/z/zhenxuan/hhwwgg_root/hhwwgg_root_FH/ws_2jets_3jets/CMS-HGG_multipdf_RECO_untagged_2jets_3jets_2017.root'
p96
ag96
aS'wsig_13TeV:hggpdfsmrel_gghh_2017_RECO_untagged_2jets_3jets_13TeV'
p97
aS'multipdf:CMS_hgg_RECO_untagged_2jets_3jets_2017_13TeV_bkgshape'
p98
aS'multipdf:roohist_data_mass_RECO_untagged_2jets_3jets'
p99
aF0.060623136609800996
ag90
ag90
aF7.642422783592418e-08
ag90
ag90
aF0.060623136609800996
ag90
ag90
atp100
ba(lp101
g15
(g16
(dp102
g18
g19
(g20
(I0
tp103
g22
tp104
Rp105
(I1
(I1
tp106
g29
I00
(lp107
g43
atp108
bsg48
Nstp109
Rp110
ag15
(g16
(dp111
g18
g19
(g20
(I0
tp112
g22
tp113
Rp114
(I1
(I13
tp115
g29
I00
(lp116
g33
ag34
ag35
ag36
ag37
ag38
ag39
ag40
ag41
ag42
ag44
ag45
ag46
atp117
bsg48
Nstp118
Rp119
a(dp120
S'0.14.1'
p121
(dp122
S'axes'
p123
g14
sS'blocks'
p124
(lp125
(dp126
S'mgr_locs'
p127
c__builtin__
slice
p128
(I10
I11
I1
tp129
Rp130
sS'values'
p131
g69
sa(dp132
g127
g19
(g20
(I0
tp133
g22
tp134
Rp135
(I1
(I13
tp136
g59
I00
S'\x00\x00\x00\x00\x00\x00\x00\x00\x01\x00\x00\x00\x00\x00\x00\x00\x02\x00\x00\x00\x00\x00\x00\x00\x03\x00\x00\x00\x00\x00\x00\x00\x04\x00\x00\x00\x00\x00\x00\x00\x05\x00\x00\x00\x00\x00\x00\x00\x06\x00\x00\x00\x00\x00\x00\x00\x07\x00\x00\x00\x00\x00\x00\x00\x08\x00\x00\x00\x00\x00\x00\x00\t\x00\x00\x00\x00\x00\x00\x00\x0b\x00\x00\x00\x00\x00\x00\x00\x0c\x00\x00\x00\x00\x00\x00\x00\r\x00\x00\x00\x00\x00\x00\x00'
p137
tp138
bsg131
g80
sasstp139
bsb.